target datalayout = "e-m:e-p270:32:32-p271:32:32-p272:64:64-i64:64-i128:128-f80:128-n8:16:32:64-S128"
target triple = "x86_64-pc-linux-gnu"

%struct.GuidPropertySet = type { %struct._e_guid_t, ptr, ptr, ptr }
%struct._e_guid_t = type { i32, i16, i16, [8 x i8] }
%struct.CFullPropSpec = type { %struct._e_guid_t, i32, %union.anon.2 }
%union.anon.2 = type { ptr }
%struct.__va_list_tag = type { i32, i32, ptr, ptr }

@hf_mswsp_cfullpropspec_kind = internal global i32 0, align 4
@hf_mswsp_cfullpropspec_propid = internal global i32 0, align 4
@hf_mswsp_cfullpropspec_propname = internal global i32 0, align 4
@ett_CFullPropSpec = internal global i32 0, align 4
@.str.1144 = private unnamed_addr constant [16 x i8] c"(Unknown: 0x%x)\00", align 1
@.str.1156 = private unnamed_addr constant [29 x i8] c"%s:%u: failed assertion \22%s\22\00", align 1
@.str.1157 = private unnamed_addr constant [31 x i8] c"epan/dissectors/packet-mswsp.c\00", align 1
@.str.1178 = private unnamed_addr constant [5 x i8] c"GUID\00", align 1
@.str.1179 = private unnamed_addr constant [6 x i8] c" \22%s\22\00", align 1
@.str.1308 = private unnamed_addr constant [15 x i8] c"paddingPropSet\00", align 1
@.str.1309 = private unnamed_addr constant [5 x i8] c": %s\00", align 1
@.str.1310 = private unnamed_addr constant [7 x i8] c": \22%s\22\00", align 1
@.str.1311 = private unnamed_addr constant [7 x i8] c": {%s}\00", align 1
@.str.1312 = private unnamed_addr constant [8 x i8] c" 0x%08x\00", align 1
@.str.1313 = private unnamed_addr constant [11 x i8] c" <INVALID>\00", align 1
@parse_PRSPEC_Kind.KIND = internal constant [3 x { i32, [4 x i8], ptr }] [{ i32, [4 x i8], ptr } { i32 0, [4 x i8] zeroinitializer, ptr @.str.1314 }, { i32, [4 x i8], ptr } { i32 1, [4 x i8] zeroinitializer, ptr @.str.1315 }, { i32, [4 x i8], ptr } zeroinitializer], align 16
@.str.1316 = private unnamed_addr constant [27 x i8] c"kind < (PRSPEC_PROPID + 1)\00", align 1

; Function Attrs: null_pointer_is_valid sspstrong uwtable
define internal i32 @parse_PRSPEC_Kind(ptr noundef %0, i32 noundef %1, ptr noundef %2, ptr noundef %3) #0 {
  %5 = alloca ptr, align 8
  %6 = alloca i32, align 4
  %7 = alloca ptr, align 8
  %8 = alloca ptr, align 8
  %9 = alloca i32, align 4
  store ptr %0, ptr %5, align 8
  store i32 %1, ptr %6, align 4
  store ptr %2, ptr %7, align 8
  store ptr %3, ptr %8, align 8
  call void @llvm.lifetime.start.p0(i64 4, ptr %9) #11
  %10 = load ptr, ptr %5, align 8
  %11 = load i32, ptr %6, align 4
  %12 = call i32 @tvb_get_letohl(ptr noundef %10, i32 noundef %11)
  store i32 %12, ptr %9, align 4
  %13 = load i32, ptr %9, align 4
  %14 = icmp slt i32 %13, 2
  br i1 %14, label %15, label %16

15:                                               ; preds = %4
  br label %18

16:                                               ; preds = %4
  call void (ptr, ...) @proto_report_dissector_bug(ptr noundef @.str.1156, ptr noundef @.str.1157, i32 noundef 3353, ptr noundef @.str.1316) #12
  unreachable

17:                                               ; No predecessors!
  br label %18

18:                                               ; preds = %17, %15
  %19 = load i32, ptr %9, align 4
  %20 = icmp ne i32 %19, 0
  br i1 %20, label %21, label %23

21:                                               ; preds = %18
  %22 = load ptr, ptr %8, align 8
  store i32 1, ptr %22, align 4
  br label %25

23:                                               ; preds = %18
  %24 = load ptr, ptr %8, align 8
  store i32 0, ptr %24, align 4
  br label %25

25:                                               ; preds = %23, %21
  %26 = load ptr, ptr %7, align 8
  %27 = load i32, ptr @hf_mswsp_cfullpropspec_kind, align 4
  %28 = load ptr, ptr %5, align 8
  %29 = load i32, ptr %6, align 4
  %30 = load ptr, ptr %8, align 8
  %31 = load i32, ptr %30, align 4
  %32 = call ptr @val_to_str(i32 noundef %31, ptr noundef @parse_PRSPEC_Kind.KIND, ptr noundef @.str.1144)
  %33 = call ptr @proto_tree_add_string(ptr noundef %26, i32 noundef %27, ptr noundef %28, i32 noundef %29, i32 noundef 4, ptr noundef %32)
  %34 = load i32, ptr %6, align 4
  %35 = add i32 %34, 4
  store i32 %35, ptr %6, align 4
  %36 = load i32, ptr %6, align 4
  call void @llvm.lifetime.end.p0(i64 4, ptr %9) #11
  ret i32 %36
}

; Function Attrs: null_pointer_is_valid sspstrong uwtable
define internal ptr @GuidPropertySet_find_guid(ptr noundef %0) #0 {
  %2 = alloca ptr, align 8
  %3 = alloca ptr, align 8
  %4 = alloca i32, align 4
  %5 = alloca i32, align 4
  store ptr %0, ptr %3, align 8
  call void @llvm.lifetime.start.p0(i64 4, ptr %4) #11
  store i32 0, ptr %4, align 4
  br label %6

6:                                                ; preds = %23, %1
  %7 = load i32, ptr %4, align 4
  %8 = zext i32 %7 to i64
  %9 = icmp ult i64 %8, 204
  br i1 %9, label %10, label %26

10:                                               ; preds = %6
  %11 = load i32, ptr %4, align 4
  %12 = zext i32 %11 to i64
  %13 = getelementptr [204 x %struct.GuidPropertySet], ptr @GuidPropertySet, i64 0, i64 %12
  %14 = getelementptr inbounds nuw %struct.GuidPropertySet, ptr %13, i32 0, i32 0
  %15 = load ptr, ptr %3, align 8
  %16 = call i32 @guid_cmp(ptr noundef %14, ptr noundef %15)
  %17 = icmp eq i32 %16, 0
  br i1 %17, label %18, label %22

18:                                               ; preds = %10
  %19 = load i32, ptr %4, align 4
  %20 = zext i32 %19 to i64
  %21 = getelementptr [204 x %struct.GuidPropertySet], ptr @GuidPropertySet, i64 0, i64 %20
  store ptr %21, ptr %2, align 8
  store i32 1, ptr %5, align 4
  br label %27

22:                                               ; preds = %10
  br label %23

23:                                               ; preds = %22
  %24 = load i32, ptr %4, align 4
  %25 = add i32 %24, 1
  store i32 %25, ptr %4, align 4
  br label %6, !llvm.loop !15

26:                                               ; preds = %6
  store ptr null, ptr %2, align 8
  store i32 1, ptr %5, align 4
  br label %27

27:                                               ; preds = %26, %18
  call void @llvm.lifetime.end.p0(i64 4, ptr %4) #11
  %28 = load ptr, ptr %2, align 8
  ret ptr %28
}

; Function Attrs: null_pointer_is_valid sspstrong uwtable
define internal i32 @parse_CFullPropSpec(ptr noundef %0, i32 noundef %1, ptr noundef %2, ptr noundef %3, ptr noundef %4, ptr noundef %5, ...) #0 {
  %7 = alloca ptr, align 8
  %8 = alloca i32, align 4
  %9 = alloca ptr, align 8
  %10 = alloca ptr, align 8
  %11 = alloca ptr, align 8
  %12 = alloca ptr, align 8
  %13 = alloca ptr, align 8
  %14 = alloca ptr, align 8
  %15 = alloca ptr, align 8
  %16 = alloca ptr, align 8
  %17 = alloca ptr, align 8
  %18 = alloca ptr, align 8
  %19 = alloca [1 x %struct.__va_list_tag], align 16
  %20 = alloca i32, align 4
  store ptr %0, ptr %7, align 8
  store i32 %1, ptr %8, align 4
  store ptr %2, ptr %9, align 8
  store ptr %3, ptr %10, align 8
  store ptr %4, ptr %11, align 8
  store ptr %5, ptr %12, align 8
  call void @llvm.lifetime.start.p0(i64 8, ptr %13) #11
  call void @llvm.lifetime.start.p0(i64 8, ptr %14) #11
  call void @llvm.lifetime.start.p0(i64 8, ptr %15) #11
  call void @llvm.lifetime.start.p0(i64 8, ptr %16) #11
  call void @llvm.lifetime.start.p0(i64 8, ptr %17) #11
  call void @llvm.lifetime.start.p0(i64 8, ptr %18) #11
  call void @llvm.lifetime.start.p0(i64 24, ptr %19) #11
  %21 = getelementptr inbounds [1 x %struct.__va_list_tag], ptr %19, i64 0, i64 0
  call void @llvm.va_start.p0(ptr %21)
  %22 = call ptr @wmem_packet_scope()
  %23 = load ptr, ptr %12, align 8
  %24 = getelementptr inbounds [1 x %struct.__va_list_tag], ptr %19, i64 0, i64 0
  %25 = call noalias ptr @wmem_strdup_vprintf(ptr noundef %22, ptr noundef %23, ptr noundef %24)
  store ptr %25, ptr %16, align 8
  %26 = getelementptr inbounds [1 x %struct.__va_list_tag], ptr %19, i64 0, i64 0
  call void @llvm.va_end.p0(ptr %26)
  %27 = load ptr, ptr %9, align 8
  %28 = load ptr, ptr %7, align 8
  %29 = load i32, ptr %8, align 4
  %30 = load i32, ptr @ett_CFullPropSpec, align 4
  %31 = load ptr, ptr %16, align 8
  %32 = call ptr @proto_tree_add_subtree(ptr noundef %27, ptr noundef %28, i32 noundef %29, i32 noundef 0, i32 noundef %30, ptr noundef %17, ptr noundef %31)
  store ptr %32, ptr %18, align 8
  %33 = load ptr, ptr %7, align 8
  %34 = load i32, ptr %8, align 4
  %35 = load ptr, ptr %10, align 8
  %36 = call i32 (ptr, i32, i32, ptr, ptr, ...) @parse_padding(ptr noundef %33, i32 noundef %34, i32 noundef 8, ptr noundef %35, ptr noundef @.str.1308)
  store i32 %36, ptr %8, align 4
  %37 = load ptr, ptr %7, align 8
  %38 = load i32, ptr %8, align 4
  %39 = load ptr, ptr %18, align 8
  %40 = load ptr, ptr %11, align 8
  %41 = getelementptr inbounds nuw %struct.CFullPropSpec, ptr %40, i32 0, i32 0
  %42 = call i32 @parse_guid(ptr noundef %37, i32 noundef %38, ptr noundef %39, ptr noundef %41, ptr noundef @.str.1178)
  store i32 %42, ptr %8, align 4
  %43 = load ptr, ptr %11, align 8
  %44 = getelementptr inbounds nuw %struct.CFullPropSpec, ptr %43, i32 0, i32 0
  %45 = call ptr @GuidPropertySet_find_guid(ptr noundef %44)
  store ptr %45, ptr %13, align 8
  %46 = load ptr, ptr %7, align 8
  %47 = load i32, ptr %8, align 4
  %48 = load ptr, ptr %18, align 8
  %49 = load ptr, ptr %11, align 8
  %50 = getelementptr inbounds nuw %struct.CFullPropSpec, ptr %49, i32 0, i32 1
  %51 = call i32 @parse_PRSPEC_Kind(ptr noundef %46, i32 noundef %47, ptr noundef %48, ptr noundef %50)
  store i32 %51, ptr %8, align 4
  %52 = load ptr, ptr %7, align 8
  %53 = load i32, ptr %8, align 4
  %54 = call i32 @tvb_get_letohl(ptr noundef %52, i32 noundef %53)
  %55 = load ptr, ptr %11, align 8
  %56 = getelementptr inbounds nuw %struct.CFullPropSpec, ptr %55, i32 0, i32 2
  store i32 %54, ptr %56, align 8
  %57 = load ptr, ptr %18, align 8
  %58 = load i32, ptr @hf_mswsp_cfullpropspec_propid, align 4
  %59 = load ptr, ptr %7, align 8
  %60 = load i32, ptr %8, align 4
  %61 = load ptr, ptr %11, align 8
  %62 = getelementptr inbounds nuw %struct.CFullPropSpec, ptr %61, i32 0, i32 2
  %63 = load i32, ptr %62, align 8
  %64 = call ptr @proto_tree_add_uint(ptr noundef %57, i32 noundef %58, ptr noundef %59, i32 noundef %60, i32 noundef 4, i32 noundef %63)
  %65 = load i32, ptr %8, align 4
  %66 = add i32 %65, 4
  store i32 %66, ptr %8, align 4
  %67 = load ptr, ptr %11, align 8
  %68 = getelementptr inbounds nuw %struct.CFullPropSpec, ptr %67, i32 0, i32 1
  %69 = load i32, ptr %68, align 8
  %70 = icmp eq i32 %69, 0
  br i1 %70, label %71, label %88

71:                                               ; preds = %6
  call void @llvm.lifetime.start.p0(i64 4, ptr %20) #11
  %72 = load ptr, ptr %11, align 8
  %73 = getelementptr inbounds nuw %struct.CFullPropSpec, ptr %72, i32 0, i32 2
  %74 = load i32, ptr %73, align 8
  %75 = mul i32 2, %74
  store i32 %75, ptr %20, align 4
  %76 = load ptr, ptr %18, align 8
  %77 = load i32, ptr @hf_mswsp_cfullpropspec_propname, align 4
  %78 = load ptr, ptr %7, align 8
  %79 = load i32, ptr %8, align 4
  %80 = load i32, ptr %20, align 4
  %81 = call ptr @wmem_packet_scope()
  %82 = load ptr, ptr %11, align 8
  %83 = getelementptr inbounds nuw %struct.CFullPropSpec, ptr %82, i32 0, i32 2
  %84 = call ptr @proto_tree_add_item_ret_string(ptr noundef %76, i32 noundef %77, ptr noundef %78, i32 noundef %79, i32 noundef %80, i32 noundef -2147483642, ptr noundef %81, ptr noundef %83)
  %85 = load i32, ptr %20, align 4
  %86 = load i32, ptr %8, align 4
  %87 = add i32 %86, %85
  store i32 %87, ptr %8, align 4
  call void @llvm.lifetime.end.p0(i64 4, ptr %20) #11
  br label %88

88:                                               ; preds = %71, %6
  %89 = load ptr, ptr %13, align 8
  %90 = icmp ne ptr %89, null
  br i1 %90, label %91, label %99

91:                                               ; preds = %88
  %92 = load ptr, ptr %11, align 8
  %93 = getelementptr inbounds nuw %struct.CFullPropSpec, ptr %92, i32 0, i32 2
  %94 = load i32, ptr %93, align 8
  %95 = load ptr, ptr %13, align 8
  %96 = getelementptr inbounds nuw %struct.GuidPropertySet, ptr %95, i32 0, i32 3
  %97 = load ptr, ptr %96, align 8
  %98 = call ptr @try_val_to_str(i32 noundef %94, ptr noundef %97)
  br label %100

99:                                               ; preds = %88
  br label %100

100:                                              ; preds = %99, %91
  %101 = phi ptr [ %98, %91 ], [ null, %99 ]
  store ptr %101, ptr %14, align 8
  %102 = load ptr, ptr %14, align 8
  %103 = icmp ne ptr %102, null
  br i1 %103, label %104, label %107

104:                                              ; preds = %100
  %105 = load ptr, ptr %17, align 8
  %106 = load ptr, ptr %14, align 8
  call void (ptr, ptr, ...) @proto_item_append_text(ptr noundef %105, ptr noundef @.str.1309, ptr noundef %106)
  br label %148

107:                                              ; preds = %100
  %108 = load ptr, ptr %11, align 8
  %109 = getelementptr inbounds nuw %struct.CFullPropSpec, ptr %108, i32 0, i32 0
  %110 = call ptr @wmem_packet_scope()
  %111 = call ptr @guids_get_guid_name(ptr noundef %109, ptr noundef %110)
  store ptr %111, ptr %15, align 8
  %112 = load ptr, ptr %15, align 8
  %113 = icmp ne ptr %112, null
  br i1 %113, label %114, label %117

114:                                              ; preds = %107
  %115 = load ptr, ptr %17, align 8
  %116 = load ptr, ptr %15, align 8
  call void (ptr, ptr, ...) @proto_item_append_text(ptr noundef %115, ptr noundef @.str.1310, ptr noundef %116)
  br label %124

117:                                              ; preds = %107
  %118 = call ptr @wmem_packet_scope()
  %119 = load ptr, ptr %11, align 8
  %120 = getelementptr inbounds nuw %struct.CFullPropSpec, ptr %119, i32 0, i32 0
  %121 = call ptr @guid_to_str(ptr noundef %118, ptr noundef %120)
  store ptr %121, ptr %15, align 8
  %122 = load ptr, ptr %17, align 8
  %123 = load ptr, ptr %15, align 8
  call void (ptr, ptr, ...) @proto_item_append_text(ptr noundef %122, ptr noundef @.str.1311, ptr noundef %123)
  br label %124

124:                                              ; preds = %117, %114
  %125 = load ptr, ptr %11, align 8
  %126 = getelementptr inbounds nuw %struct.CFullPropSpec, ptr %125, i32 0, i32 1
  %127 = load i32, ptr %126, align 8
  %128 = icmp eq i32 %127, 0
  br i1 %128, label %129, label %134

129:                                              ; preds = %124
  %130 = load ptr, ptr %17, align 8
  %131 = load ptr, ptr %11, align 8
  %132 = getelementptr inbounds nuw %struct.CFullPropSpec, ptr %131, i32 0, i32 2
  %133 = load ptr, ptr %132, align 8
  call void (ptr, ptr, ...) @proto_item_append_text(ptr noundef %130, ptr noundef @.str.1179, ptr noundef %133)
  br label %147

134:                                              ; preds = %124
  %135 = load ptr, ptr %11, align 8
  %136 = getelementptr inbounds nuw %struct.CFullPropSpec, ptr %135, i32 0, i32 1
  %137 = load i32, ptr %136, align 8
  %138 = icmp eq i32 %137, 1
  br i1 %138, label %139, label %144

139:                                              ; preds = %134
  %140 = load ptr, ptr %17, align 8
  %141 = load ptr, ptr %11, align 8
  %142 = getelementptr inbounds nuw %struct.CFullPropSpec, ptr %141, i32 0, i32 2
  %143 = load i32, ptr %142, align 8
  call void (ptr, ptr, ...) @proto_item_append_text(ptr noundef %140, ptr noundef @.str.1312, i32 noundef %143)
  br label %146

144:                                              ; preds = %134
  %145 = load ptr, ptr %17, align 8
  call void (ptr, ptr, ...) @proto_item_append_text(ptr noundef %145, ptr noundef @.str.1313)
  br label %146

146:                                              ; preds = %144, %139
  br label %147

147:                                              ; preds = %146, %129
  br label %148

148:                                              ; preds = %147, %104
  %149 = load ptr, ptr %17, align 8
  %150 = load ptr, ptr %7, align 8
  %151 = load i32, ptr %8, align 4
  call void @proto_item_set_end(ptr noundef %149, ptr noundef %150, i32 noundef %151)
  %152 = load i32, ptr %8, align 4
  call void @llvm.lifetime.end.p0(i64 24, ptr %19) #11
  call void @llvm.lifetime.end.p0(i64 8, ptr %18) #11
  call void @llvm.lifetime.end.p0(i64 8, ptr %17) #11
  call void @llvm.lifetime.end.p0(i64 8, ptr %16) #11
  call void @llvm.lifetime.end.p0(i64 8, ptr %15) #11
  call void @llvm.lifetime.end.p0(i64 8, ptr %14) #11
  call void @llvm.lifetime.end.p0(i64 8, ptr %13) #11
  ret i32 %152
}