; Function Attrs: null_pointer_is_valid sspstrong uwtable
define internal i32 @parse_CFullPropSpec(ptr noundef %0, i32 noundef %1, ptr noundef %2, ptr noundef %3, ptr noundef %4, ptr noundef %5, ...) unnamed_addr #0 {
  %7 = alloca ptr, align 8
  %8 = alloca [1 x %struct.__va_list_tag], align 16
  call void @llvm.lifetime.start.p0(i64 8, ptr nonnull %7) #11
  call void @llvm.lifetime.start.p0(i64 24, ptr nonnull %8) #11
  call void @llvm.va_start.p0(ptr nonnull %8)
  %9 = call ptr @wmem_packet_scope()
  %10 = call noalias ptr @wmem_strdup_vprintf(ptr noundef %9, ptr noundef %5, ptr noundef nonnull %8)
  call void @llvm.va_end.p0(ptr nonnull %8)
  %11 = load i32, ptr @ett_CFullPropSpec, align 4
  %12 = call ptr @proto_tree_add_subtree(ptr noundef %2, ptr noundef %0, i32 noundef %1, i32 noundef 0, i32 noundef %11, ptr noundef nonnull %7, ptr noundef %10)
  %13 = call i32 (ptr, i32, i32, ptr, ptr, ...) @parse_padding(ptr noundef %0, i32 noundef %1, i32 noundef 8, ptr noundef %3, ptr noundef nonnull @.str.1308)
  %14 = call fastcc i32 @parse_guid(ptr noundef %0, i32 noundef %13, ptr noundef %12, ptr noundef %4, ptr noundef nonnull @.str.1178)
  br label %16

15:                                               ; preds = %16
  %indvars.iv.next.i = add nuw nsw i64 %indvars.iv.i, 1
  %exitcond.not.i = icmp eq i64 %indvars.iv.next.i, 204
  br i1 %exitcond.not.i, label %GuidPropertySet_find_guid.exit, label %16, !llvm.loop !15

16:                                               ; preds = %15, %6
  %indvars.iv.i = phi i64 [ 0, %6 ], [ %indvars.iv.next.i, %15 ]
  %17 = getelementptr [204 x %struct.GuidPropertySet], ptr @GuidPropertySet, i64 0, i64 %indvars.iv.i
  %18 = call i32 @guid_cmp(ptr noundef %17, ptr noundef %4)
  %19 = icmp eq i32 %18, 0
  br i1 %19, label %GuidPropertySet_find_guid.exit, label %15

GuidPropertySet_find_guid.exit:                   ; preds = %15, %16
  %.05.i = phi ptr [ %17, %16 ], [ null, %15 ]
  %20 = getelementptr inbounds nuw i8, ptr %4, i64 16
  %21 = call i32 @tvb_get_letohl(ptr noundef %0, i32 noundef %14)
  %22 = icmp slt i32 %21, 2
  br i1 %22, label %parse_PRSPEC_Kind.exit, label %23

23:                                               ; preds = %GuidPropertySet_find_guid.exit
  call void (ptr, ...) @proto_report_dissector_bug(ptr noundef nonnull @.str.1156, ptr noundef nonnull @.str.1157, i32 noundef 3353, ptr noundef nonnull @.str.1316) #13
  unreachable

parse_PRSPEC_Kind.exit:                           ; preds = %GuidPropertySet_find_guid.exit
  %.not.i = icmp ne i32 %21, 0
  %..i = zext i1 %.not.i to i32
  store i32 %..i, ptr %20, align 4
  %24 = load i32, ptr @hf_mswsp_cfullpropspec_kind, align 4
  %25 = call ptr @val_to_str(i32 noundef %..i, ptr noundef nonnull @parse_PRSPEC_Kind.KIND, ptr noundef nonnull @.str.1144)
  %26 = call ptr @proto_tree_add_string(ptr noundef %12, i32 noundef %24, ptr noundef %0, i32 noundef %14, i32 noundef 4, ptr noundef %25)
  %27 = add i32 %14, 4
  %28 = call i32 @tvb_get_letohl(ptr noundef %0, i32 noundef %27)
  %29 = getelementptr inbounds nuw i8, ptr %4, i64 24
  store i32 %28, ptr %29, align 8
  %30 = load i32, ptr @hf_mswsp_cfullpropspec_propid, align 4
  %31 = call ptr @proto_tree_add_uint(ptr noundef %12, i32 noundef %30, ptr noundef %0, i32 noundef %27, i32 noundef 4, i32 noundef %28)
  %32 = add i32 %14, 8
  %33 = load i32, ptr %20, align 8
  %34 = icmp eq i32 %33, 0
  br i1 %34, label %35, label %42

35:                                               ; preds = %parse_PRSPEC_Kind.exit
  %36 = load i32, ptr %29, align 8
  %37 = shl i32 %36, 1
  %38 = load i32, ptr @hf_mswsp_cfullpropspec_propname, align 4
  %39 = call ptr @wmem_packet_scope()
  %40 = call ptr @proto_tree_add_item_ret_string(ptr noundef %12, i32 noundef %38, ptr noundef %0, i32 noundef %32, i32 noundef %37, i32 noundef -2147483642, ptr noundef %39, ptr noundef nonnull %29)
  %41 = add i32 %37, %32
  br label %42

42:                                               ; preds = %35, %parse_PRSPEC_Kind.exit
  %.0 = phi i32 [ %41, %35 ], [ %32, %parse_PRSPEC_Kind.exit ]
  %.not = icmp eq ptr %.05.i, null
  br i1 %.not, label %.thread, label %43

43:                                               ; preds = %42
  %44 = load i32, ptr %29, align 8
  %45 = getelementptr inbounds nuw i8, ptr %.05.i, i64 32
  %46 = load ptr, ptr %45, align 8
  %47 = call ptr @try_val_to_str(i32 noundef %44, ptr noundef %46)
  %.not54 = icmp eq ptr %47, null
  br i1 %.not54, label %.thread, label %48

48:                                               ; preds = %43
  %49 = load ptr, ptr %7, align 8
  call void (ptr, ptr, ...) @proto_item_append_text(ptr noundef %49, ptr noundef nonnull @.str.1309, ptr noundef nonnull %47)
  br label %66

.thread:                                          ; preds = %42, %43
  %50 = call ptr @wmem_packet_scope()
  %51 = call ptr @guids_get_guid_name(ptr noundef %4, ptr noundef %50)
  %.not55 = icmp eq ptr %51, null
  br i1 %.not55, label %54, label %52

52:                                               ; preds = %.thread
  %53 = load ptr, ptr %7, align 8
  call void (ptr, ptr, ...) @proto_item_append_text(ptr noundef %53, ptr noundef nonnull @.str.1310, ptr noundef nonnull %51)
  br label %58

54:                                               ; preds = %.thread
  %55 = call ptr @wmem_packet_scope()
  %56 = call ptr @guid_to_str(ptr noundef %55, ptr noundef %4)
  %57 = load ptr, ptr %7, align 8
  call void (ptr, ptr, ...) @proto_item_append_text(ptr noundef %57, ptr noundef nonnull @.str.1311, ptr noundef %56)
  br label %58

58:                                               ; preds = %54, %52
  %59 = load i32, ptr %20, align 8
  %60 = load ptr, ptr %7, align 8
  switch i32 %59, label %65 [
    i32 0, label %61
    i32 1, label %63
  ]

61:                                               ; preds = %58
  %62 = load ptr, ptr %29, align 8
  call void (ptr, ptr, ...) @proto_item_append_text(ptr noundef %60, ptr noundef nonnull @.str.1179, ptr noundef %62)
  br label %66

63:                                               ; preds = %58
  %64 = load i32, ptr %29, align 8
  call void (ptr, ptr, ...) @proto_item_append_text(ptr noundef %60, ptr noundef nonnull @.str.1312, i32 noundef %64)
  br label %66

65:                                               ; preds = %58
  call void (ptr, ptr, ...) @proto_item_append_text(ptr noundef %60, ptr noundef nonnull @.str.1313)
  br label %66

66:                                               ; preds = %61, %65, %63, %48
  %67 = load ptr, ptr %7, align 8
  call void @proto_item_set_end(ptr noundef %67, ptr noundef %0, i32 noundef %.0)
  call void @llvm.lifetime.end.p0(i64 24, ptr nonnull %8) #11
  call void @llvm.lifetime.end.p0(i64 8, ptr nonnull %7) #11
  ret i32 %.0
}